target datalayout = "e-m:e-p270:32:32-p271:32:32-p272:64:64-i64:64-i128:128-f80:128-n8:16:32:64-S128"
target triple = "x86_64-pc-linux-gnu"

%struct.redisServer = type { i32, i64, ptr, ptr, ptr, i32, i32, i32, i32, i32, ptr, ptr, ptr, ptr, ptr, i32, i32, i32, i32, i64, i32, i32, i32, i32, ptr, i32, i32, [41 x i8], i32, i64, i32, i32, i32, ptr, ptr, i32, i32, i64, ptr, ptr, ptr, ptr, [2 x i32], i32, i32, i32, i32, i32, i32, [16 x ptr], i32, ptr, ptr, i32, [8 x %struct.connListener], i32, %struct.connListener, ptr, ptr, ptr, ptr, ptr, ptr, ptr, ptr, ptr, ptr, i32, ptr, i32, ptr, [3 x %struct.pause_event], [256 x i8], ptr, i64, i32, i32, [128 x i32], i32, i32, i64, i32, i32, i32, i32, i32, i64, i64, i64, i64, i64, i64, i64, i64, i64, i64, double, i64, i64, i64, i64, i64, i64, i64, i64, i64, i64, i64, i64, i64, i64, i64, i64, i64, i64, i64, i64, i64, double, i64, i64, i64, i64, i64, ptr, i64, i64, i64, %struct.malloc_stats, i64, i64, i64, i64, i64, i64, i64, i64, i64, i64, i64, i64, double, [4 x i64], i64, i64, i64, i64, [128 x i64], [128 x i64], i64, i64, [7 x %struct.anon], i64, i64, i64, i64, i64, i64, [4 x %struct.durationStats], i32, i32, i32, i32, i32, i32, i32, i32, i32, i32, i32, i32, i64, i32, i32, i32, i32, i64, i64, i32, i32, i32, i32, i32, ptr, [3 x %struct.clientBufferLimitsConfig], i32, i32, i32, ptr, i32, i32, i32, i32, i32, i32, ptr, ptr, i32, i32, i64, i64, i64, i64, i64, i32, i32, ptr, i32, i32, i64, i64, i64, i64, i64, i32, i32, i64, i32, i32, i32, i32, i32, i32, i32, i32, ptr, i32, i64, i64, i64, i64, i32, ptr, i32, ptr, i32, i32, i32, i64, i64, i64, i64, i32, i32, i32, i32, i32, i32, ptr, i32, i32, ptr, i32, i32, i32, [2 x i32], i32, %struct.redisOpArray, i32, ptr, i32, ptr, i32, i32, i32, i32, i32, i32, i32, [41 x i8], [41 x i8], i64, i64, i64, i64, i32, i32, ptr, i64, i64, %struct.replDataBuf, i64, i64, i32, i32, i32, i32, i32, i32, i32, i32, i32, i64, ptr, i64, ptr, ptr, ptr, i32, i32, ptr, ptr, i32, i32, i32, i64, i64, i64, i64, ptr, ptr, i32, ptr, i64, i32, i32, i32, i64, i32, i32, i32, i32, ptr, i32, i32, [41 x i8], i64, i32, ptr, i32, i32, i64, i64, i32, i32, i32, i32, i32, i64, [3 x i32], i32, i32, i32, [10 x i32], ptr, ptr, i32, i64, ptr, ptr, i32, i32, i32, i32, i64, i64, i64, i64, i64, i64, i64, i64, i64, i64, i32, i32, i64, i64, i32, i64, i64, i64, i64, i64, ptr, ptr, i32, ptr, i32, i32, i32, i32, i64, i64, ptr, ptr, i32, i32, i32, i32, i32, ptr, ptr, ptr, i32, i32, i32, i32, i32, i32, i32, i64, i32, i32, i64, i32, i32, i32, i32, i32, i32, i32, i64, ptr, ptr, i64, ptr, i32, %struct.aclInfo, i32, i64, i32, i32, i32, %struct.redisTLSContextConfig, ptr, ptr, ptr, ptr, ptr, i64, i32, ptr, i32, i32, i32, i64, i32, ptr }
%struct.connListener = type { [16 x i32], i32, ptr, i32, i32, ptr, ptr }
%struct.pause_event = type { i32, i64 }
%struct.malloc_stats = type { i64, i64, i64, i64, i64, i64, i64, i64, i64, i64, i64 }
%struct.anon = type { i64, i64, [16 x i64], i32 }
%struct.durationStats = type { i64, i64, i64 }
%struct.clientBufferLimitsConfig = type { i64, i64, i64 }
%struct.redisOpArray = type { ptr, i32, i32 }
%struct.replDataBuf = type { ptr, i64, i64, i64, i64 }
%struct.aclInfo = type { i64, i64, i64, i64 }
%struct.redisTLSContextConfig = type { ptr, ptr, ptr, ptr, ptr, ptr, ptr, ptr, ptr, ptr, ptr, ptr, i32, i32, i32, i32 }
%struct.client = type { i64, i64, ptr, i8, i8, i8, i8, i32, ptr, ptr, ptr, ptr, ptr, i64, i64, i32, ptr, i32, i32, ptr, i64, ptr, ptr, ptr, ptr, ptr, i32, i32, i64, ptr, i64, ptr, i64, i64, i64, i32, ptr, i64, i64, i32, i32, i32, i32, i64, i64, ptr, i64, i64, i64, i64, i64, i64, i64, i64, [41 x i8], i32, ptr, i32, i32, i64, %struct.multiState, %struct.blockingState, i64, ptr, ptr, ptr, ptr, ptr, ptr, ptr, ptr, ptr, ptr, ptr, ptr, ptr, ptr, i64, ptr, i64, i32, ptr, ptr, ptr, i64, %struct.listNode, i64, i64, i32, i64, ptr }
%struct.multiState = type { ptr, i32, i32, i32, i64, i32 }
%struct.blockingState = type { i32, i64, i32, ptr, i32, i32, i64, ptr, ptr, i64 }
%struct.listNode = type { ptr, ptr, ptr }
%struct.redisObject = type { i32, i32, ptr }

@curr_functions_lib_ctx = internal global ptr null, align 8
@server = external global %struct.redisServer, align 8
@.str.24 = private unnamed_addr constant [8 x i8] c"replace\00", align 1
@.str.82 = private unnamed_addr constant [25 x i8] c"Unknown option given: %s\00", align 1
@.str.83 = private unnamed_addr constant [25 x i8] c"Function code is missing\00", align 1

; Function Attrs: nounwind uwtable
define dso_local void @functionLoadCommand(ptr noundef %0) #1 {
  %2 = alloca ptr, align 8
  %3 = alloca i32, align 4
  %4 = alloca i32, align 4
  %5 = alloca ptr, align 8
  %6 = alloca i32, align 4
  %7 = alloca ptr, align 8
  %8 = alloca ptr, align 8
  %9 = alloca ptr, align 8
  %10 = alloca i64, align 8
  store ptr %0, ptr %2, align 8, !tbaa !91
  call void @llvm.lifetime.start.p0(i64 4, ptr %3) #11
  store i32 0, ptr %3, align 4, !tbaa !54
  call void @llvm.lifetime.start.p0(i64 4, ptr %4) #11
  store i32 2, ptr %4, align 4, !tbaa !54
  br label %11

11:                                               ; preds = %38, %1
  %12 = load i32, ptr %4, align 4, !tbaa !54
  %13 = load ptr, ptr %2, align 8, !tbaa !91
  %14 = getelementptr inbounds nuw %struct.client, ptr %13, i32 0, i32 15
  %15 = load i32, ptr %14, align 8, !tbaa !106
  %16 = sub nsw i32 %15, 1
  %17 = icmp slt i32 %12, %16
  br i1 %17, label %18, label %40

18:                                               ; preds = %11
  call void @llvm.lifetime.start.p0(i64 8, ptr %5) #11
  %19 = load ptr, ptr %2, align 8, !tbaa !91
  %20 = getelementptr inbounds nuw %struct.client, ptr %19, i32 0, i32 16
  %21 = load ptr, ptr %20, align 8, !tbaa !107
  %22 = load i32, ptr %4, align 4, !tbaa !54
  %23 = add nsw i32 %22, 1
  store i32 %23, ptr %4, align 4, !tbaa !54
  %24 = sext i32 %22 to i64
  %25 = getelementptr inbounds ptr, ptr %21, i64 %24
  %26 = load ptr, ptr %25, align 8, !tbaa !108
  store ptr %26, ptr %5, align 8, !tbaa !108
  %27 = load ptr, ptr %5, align 8, !tbaa !108
  %28 = getelementptr inbounds nuw %struct.redisObject, ptr %27, i32 0, i32 2
  %29 = load ptr, ptr %28, align 8, !tbaa !109
  %30 = call i32 @strcasecmp(ptr noundef %29, ptr noundef @.str.24) #14
  %31 = icmp ne i32 %30, 0
  br i1 %31, label %33, label %32

32:                                               ; preds = %18
  store i32 1, ptr %3, align 4, !tbaa !54
  store i32 2, ptr %6, align 4
  br label %38, !llvm.loop !161

33:                                               ; preds = %18
  %34 = load ptr, ptr %2, align 8, !tbaa !91
  %35 = load ptr, ptr %5, align 8, !tbaa !108
  %36 = getelementptr inbounds nuw %struct.redisObject, ptr %35, i32 0, i32 2
  %37 = load ptr, ptr %36, align 8, !tbaa !109
  call void (ptr, ptr, ...) @addReplyErrorFormat(ptr noundef %34, ptr noundef @.str.82, ptr noundef %37)
  store i32 1, ptr %6, align 4
  br label %38

38:                                               ; preds = %33, %32
  call void @llvm.lifetime.end.p0(i64 8, ptr %5) #11
  %39 = load i32, ptr %6, align 4
  switch i32 %39, label %78 [
    i32 2, label %11
  ]

40:                                               ; preds = %11
  %41 = load i32, ptr %4, align 4, !tbaa !54
  %42 = load ptr, ptr %2, align 8, !tbaa !91
  %43 = getelementptr inbounds nuw %struct.client, ptr %42, i32 0, i32 15
  %44 = load i32, ptr %43, align 8, !tbaa !106
  %45 = icmp sge i32 %41, %44
  br i1 %45, label %46, label %48

46:                                               ; preds = %40
  %47 = load ptr, ptr %2, align 8, !tbaa !91
  call void @addReplyError(ptr noundef %47, ptr noundef @.str.83)
  store i32 1, ptr %6, align 4
  br label %78

48:                                               ; preds = %40
  call void @llvm.lifetime.start.p0(i64 8, ptr %7) #11
  %49 = load ptr, ptr %2, align 8, !tbaa !91
  %50 = getelementptr inbounds nuw %struct.client, ptr %49, i32 0, i32 16
  %51 = load ptr, ptr %50, align 8, !tbaa !107
  %52 = load i32, ptr %4, align 4, !tbaa !54
  %53 = sext i32 %52 to i64
  %54 = getelementptr inbounds ptr, ptr %51, i64 %53
  %55 = load ptr, ptr %54, align 8, !tbaa !108
  store ptr %55, ptr %7, align 8, !tbaa !108
  call void @llvm.lifetime.start.p0(i64 8, ptr %8) #11
  store ptr null, ptr %8, align 8, !tbaa !57
  call void @llvm.lifetime.start.p0(i64 8, ptr %9) #11
  store ptr null, ptr %9, align 8, !tbaa !57
  call void @llvm.lifetime.start.p0(i64 8, ptr %10) #11
  store i64 500, ptr %10, align 8, !tbaa !59
  %56 = load ptr, ptr %2, align 8, !tbaa !91
  %57 = call i32 @mustObeyClient(ptr noundef %56)
  %58 = icmp ne i32 %57, 0
  br i1 %58, label %59, label %60

59:                                               ; preds = %48
  store i64 0, ptr %10, align 8, !tbaa !59
  br label %60

60:                                               ; preds = %59, %48
  %61 = load ptr, ptr %7, align 8, !tbaa !108
  %62 = getelementptr inbounds nuw %struct.redisObject, ptr %61, i32 0, i32 2
  %63 = load ptr, ptr %62, align 8, !tbaa !109
  %64 = load i32, ptr %3, align 4, !tbaa !54
  %65 = load ptr, ptr @curr_functions_lib_ctx, align 8, !tbaa !38
  %66 = load i64, ptr %10, align 8, !tbaa !59
  %67 = call ptr @functionsCreateWithLibraryCtx(ptr noundef %63, i32 noundef %64, ptr noundef %8, ptr noundef %65, i64 noundef %66)
  store ptr %67, ptr %9, align 8, !tbaa !57
  %68 = icmp ne ptr %67, null
  br i1 %68, label %72, label %69

69:                                               ; preds = %60
  %70 = load ptr, ptr %2, align 8, !tbaa !91
  %71 = load ptr, ptr %8, align 8, !tbaa !57
  call void @addReplyErrorSds(ptr noundef %70, ptr noundef %71)
  store i32 1, ptr %6, align 4
  br label %77

72:                                               ; preds = %60
  %73 = load i64, ptr getelementptr inbounds nuw (%struct.redisServer, ptr @server, i32 0, i32 227), align 8, !tbaa !127
  %74 = add nsw i64 %73, 1
  store i64 %74, ptr getelementptr inbounds nuw (%struct.redisServer, ptr @server, i32 0, i32 227), align 8, !tbaa !127
  %75 = load ptr, ptr %2, align 8, !tbaa !91
  %76 = load ptr, ptr %9, align 8, !tbaa !57
  call void @addReplyBulkSds(ptr noundef %75, ptr noundef %76)
  store i32 0, ptr %6, align 4
  br label %77

77:                                               ; preds = %72, %69
  call void @llvm.lifetime.end.p0(i64 8, ptr %10) #11
  call void @llvm.lifetime.end.p0(i64 8, ptr %9) #11
  call void @llvm.lifetime.end.p0(i64 8, ptr %8) #11
  call void @llvm.lifetime.end.p0(i64 8, ptr %7) #11
  br label %78

78:                                               ; preds = %77, %46, %38
  call void @llvm.lifetime.end.p0(i64 4, ptr %4) #11
  call void @llvm.lifetime.end.p0(i64 4, ptr %3) #11
  %79 = load i32, ptr %6, align 4
  switch i32 %79, label %81 [
    i32 0, label %80
    i32 1, label %80
  ]

80:                                               ; preds = %78, %78
  ret void

81:                                               ; preds = %78
  unreachable
}