; Function Attrs: nounwind uwtable
define dso_local void @functionLoadCommand(ptr noundef %0) local_unnamed_addr #1 {
  %2 = alloca ptr, align 8
  %3 = getelementptr inbounds nuw i8, ptr %0, i64 88
  %4 = load i32, ptr %3, align 8, !tbaa !96
  %5 = icmp sgt i32 %4, 3
  br i1 %5, label %.lr.ph, label %._crit_edge

.lr.ph:                                           ; preds = %1
  %6 = add nsw i32 %4, -1
  %7 = getelementptr inbounds nuw i8, ptr %0, i64 96
  %8 = load ptr, ptr %7, align 8, !tbaa !97
  %9 = add nsw i32 %4, -1
  %wide.trip.count = zext nneg i32 %6 to i64
  br label %11

10:                                               ; preds = %11
  %indvars.iv.next = add nuw nsw i64 %indvars.iv, 1
  %exitcond.not = icmp eq i64 %indvars.iv.next, %wide.trip.count
  br i1 %exitcond.not, label %._crit_edge.thread.loopexit, label %11, !llvm.loop !143

11:                                               ; preds = %.lr.ph, %10
  %indvars.iv = phi i64 [ 2, %.lr.ph ], [ %indvars.iv.next, %10 ]
  %12 = getelementptr inbounds nuw ptr, ptr %8, i64 %indvars.iv
  %13 = load ptr, ptr %12, align 8, !tbaa !98
  %14 = getelementptr inbounds nuw i8, ptr %13, i64 8
  %15 = load ptr, ptr %14, align 8, !tbaa !99
  %16 = tail call i32 @strcasecmp(ptr noundef %15, ptr noundef nonnull @.str.24) #15
  %.not25 = icmp eq i32 %16, 0
  br i1 %.not25, label %10, label %.thread, !llvm.loop !143

.thread:                                          ; preds = %11
  tail call void (ptr, ptr, ...) @addReplyErrorFormat(ptr noundef nonnull %0, ptr noundef nonnull @.str.82, ptr noundef %15) #12
  br label %34

._crit_edge:                                      ; preds = %1
  %.not = icmp eq i32 %4, 3
  br i1 %.not, label %._crit_edge.thread, label %17

17:                                               ; preds = %._crit_edge
  tail call void @addReplyError(ptr noundef nonnull %0, ptr noundef nonnull @.str.83) #12
  br label %34

._crit_edge.thread.loopexit:                      ; preds = %10
  %18 = zext nneg i32 %9 to i64
  br label %._crit_edge.thread

._crit_edge.thread:                               ; preds = %._crit_edge.thread.loopexit, %._crit_edge
  %.019.lcssa41 = phi i32 [ 0, %._crit_edge ], [ 1, %._crit_edge.thread.loopexit ]
  %.021.lcssa40 = phi i64 [ 2, %._crit_edge ], [ %18, %._crit_edge.thread.loopexit ]
  %19 = getelementptr inbounds nuw i8, ptr %0, i64 96
  %20 = load ptr, ptr %19, align 8, !tbaa !97
  %21 = getelementptr inbounds nuw ptr, ptr %20, i64 %.021.lcssa40
  %22 = load ptr, ptr %21, align 8, !tbaa !98
  call void @llvm.lifetime.start.p0(i64 8, ptr nonnull %2) #12
  store ptr null, ptr %2, align 8, !tbaa !51
  %23 = tail call i32 @mustObeyClient(ptr noundef nonnull %0) #12
  %.not23 = icmp eq i32 %23, 0
  %spec.select = select i1 %.not23, i64 500, i64 0
  %24 = getelementptr inbounds nuw i8, ptr %22, i64 8
  %25 = load ptr, ptr %24, align 8, !tbaa !99
  %26 = load ptr, ptr @curr_functions_lib_ctx, align 8, !tbaa !40
  %27 = call ptr @functionsCreateWithLibraryCtx(ptr noundef %25, i32 noundef %.019.lcssa41, ptr noundef nonnull %2, ptr noundef %26, i64 noundef %spec.select)
  %.not24 = icmp eq ptr %27, null
  br i1 %.not24, label %28, label %30

28:                                               ; preds = %._crit_edge.thread
  %29 = load ptr, ptr %2, align 8, !tbaa !51
  call void @addReplyErrorSds(ptr noundef nonnull %0, ptr noundef %29) #12
  br label %33

30:                                               ; preds = %._crit_edge.thread
  %31 = load i64, ptr getelementptr inbounds nuw (i8, ptr @server, i64 6720), align 8, !tbaa !115
  %32 = add nsw i64 %31, 1
  store i64 %32, ptr getelementptr inbounds nuw (i8, ptr @server, i64 6720), align 8, !tbaa !115
  call void @addReplyBulkSds(ptr noundef nonnull %0, ptr noundef nonnull %27) #12
  br label %33

33:                                               ; preds = %30, %28
  call void @llvm.lifetime.end.p0(i64 8, ptr nonnull %2) #12
  br label %34

34:                                               ; preds = %.thread, %33, %17
  ret void
}